; Function Attrs: mustprogress nofree norecurse nosync nounwind willreturn memory(readwrite, inaccessiblemem: none) uwtable
define hidden void @_ZN11upolynomial12core_manager7factors11swap_factorEjR7svectorI3mpzjE(ptr noundef nonnull align 8 captures(none) dereferenceable(48) %0, i32 noundef %1, ptr noundef nonnull align 8 captures(none) dereferenceable(8) %2) local_unnamed_addr #10 align 2 {
  %4 = load ptr, ptr %0, align 8, !tbaa !26
  %5 = zext i32 %1 to i64
  %6 = getelementptr inbounds nuw %class.svector.1, ptr %4, i64 %5
  %7 = load ptr, ptr %6, align 8, !tbaa !28
  %8 = icmp eq ptr %7, null
  br i1 %8, label %_ZN11upolynomial12core_manager6degreeERK7svectorI3mpzjE.exit, label %9

9:                                                ; preds = %3
  %10 = getelementptr inbounds i8, ptr %7, i64 -4
  %11 = load i32, ptr %10, align 4, !tbaa !27
  br label %_ZN11upolynomial12core_manager6degreeERK7svectorI3mpzjE.exit

_ZN11upolynomial12core_manager6degreeERK7svectorI3mpzjE.exit: ; preds = %3, %9
  %.0.i.i = phi i32 [ %11, %9 ], [ 0, %3 ]
  %12 = tail call noundef i32 @llvm.usub.sat.i32(i32 %.0.i.i, i32 1)
  %13 = getelementptr inbounds nuw i8, ptr %0, i64 8
  %14 = load ptr, ptr %13, align 8, !tbaa !25
  %15 = getelementptr inbounds nuw i32, ptr %14, i64 %5
  %16 = load i32, ptr %15, align 4, !tbaa !27
  %17 = mul i32 %16, %12
  %18 = getelementptr inbounds nuw i8, ptr %0, i64 44
  %19 = load i32, ptr %18, align 4, !tbaa !35
  %20 = sub i32 %19, %17
  store i32 %20, ptr %18, align 4, !tbaa !35
  %21 = load ptr, ptr %2, align 8, !tbaa !28
  %22 = icmp eq ptr %21, null
  br i1 %22, label %_ZN11upolynomial12core_manager6degreeERK7svectorI3mpzjE.exit7, label %23

23:                                               ; preds = %_ZN11upolynomial12core_manager6degreeERK7svectorI3mpzjE.exit
  %24 = getelementptr inbounds i8, ptr %21, i64 -4
  %25 = load i32, ptr %24, align 4, !tbaa !27
  br label %_ZN11upolynomial12core_manager6degreeERK7svectorI3mpzjE.exit7

_ZN11upolynomial12core_manager6degreeERK7svectorI3mpzjE.exit7: ; preds = %_ZN11upolynomial12core_manager6degreeERK7svectorI3mpzjE.exit, %23
  %.0.i.i6 = phi i32 [ %25, %23 ], [ 0, %_ZN11upolynomial12core_manager6degreeERK7svectorI3mpzjE.exit ]
  %26 = tail call noundef i32 @llvm.usub.sat.i32(i32 %.0.i.i6, i32 1)
  %27 = load i32, ptr %15, align 4, !tbaa !27
  %28 = mul i32 %26, %27
  %29 = add i32 %28, %20
  store i32 %29, ptr %18, align 4, !tbaa !35
  store ptr %21, ptr %6, align 8, !tbaa !38
  store ptr %7, ptr %2, align 8, !tbaa !38
  ret void
}